target datalayout = "e-m:e-p270:32:32-p271:32:32-p272:64:64-i64:64-i128:128-f80:128-n8:16:32:64-S128"
target triple = "x86_64-pc-linux-gnu"

%struct.X509_name_entry_st = type { ptr, ptr, i32, i32 }

@.str = private unnamed_addr constant [126 x i8] c"generated/home/dtcxzyw/WorkSpace/Projects/compilers/llvm-opt-benchmark/bench/libquic/libquic/boringssl/crypto/x509/x509name.c\00", align 1

; Function Attrs: nounwind uwtable
define hidden i32 @X509_NAME_ENTRY_set_object(ptr noundef %0, ptr noundef %1) #0 {
  %3 = alloca i32, align 4
  %4 = alloca ptr, align 8
  %5 = alloca ptr, align 8
  store ptr %0, ptr %4, align 8, !tbaa !29
  store ptr %1, ptr %5, align 8, !tbaa !15
  %6 = load ptr, ptr %4, align 8, !tbaa !29
  %7 = icmp eq ptr %6, null
  br i1 %7, label %11, label %8

8:                                                ; preds = %2
  %9 = load ptr, ptr %5, align 8, !tbaa !15
  %10 = icmp eq ptr %9, null
  br i1 %10, label %11, label %12

11:                                               ; preds = %8, %2
  call void @ERR_put_error(i32 noundef 11, i32 noundef 0, i32 noundef 67, ptr noundef @.str, i32 noundef 341)
  store i32 0, ptr %3, align 4
  br label %25

12:                                               ; preds = %8
  %13 = load ptr, ptr %4, align 8, !tbaa !29
  %14 = getelementptr inbounds nuw %struct.X509_name_entry_st, ptr %13, i32 0, i32 0
  %15 = load ptr, ptr %14, align 8, !tbaa !31
  call void @ASN1_OBJECT_free(ptr noundef %15)
  %16 = load ptr, ptr %5, align 8, !tbaa !15
  %17 = call ptr @OBJ_dup(ptr noundef %16)
  %18 = load ptr, ptr %4, align 8, !tbaa !29
  %19 = getelementptr inbounds nuw %struct.X509_name_entry_st, ptr %18, i32 0, i32 0
  store ptr %17, ptr %19, align 8, !tbaa !31
  %20 = load ptr, ptr %4, align 8, !tbaa !29
  %21 = getelementptr inbounds nuw %struct.X509_name_entry_st, ptr %20, i32 0, i32 0
  %22 = load ptr, ptr %21, align 8, !tbaa !31
  %23 = icmp eq ptr %22, null
  %24 = select i1 %23, i32 0, i32 1
  store i32 %24, ptr %3, align 4
  br label %25

25:                                               ; preds = %12, %11
  %26 = load i32, ptr %3, align 4
  ret i32 %26
}

; Function Attrs: nounwind uwtable
define hidden ptr @X509_NAME_ENTRY_create_by_OBJ(ptr noundef %0, ptr noundef %1, i32 noundef %2, ptr noundef %3, i32 noundef %4) #0 {
  %6 = alloca ptr, align 8
  %7 = alloca ptr, align 8
  %8 = alloca ptr, align 8
  %9 = alloca i32, align 4
  %10 = alloca ptr, align 8
  %11 = alloca i32, align 4
  %12 = alloca ptr, align 8
  %13 = alloca i32, align 4
  store ptr %0, ptr %7, align 8, !tbaa !39
  store ptr %1, ptr %8, align 8, !tbaa !15
  store i32 %2, ptr %9, align 4, !tbaa !11
  store ptr %3, ptr %10, align 8, !tbaa !13
  store i32 %4, ptr %11, align 4, !tbaa !11
  call void @llvm.lifetime.start.p0(i64 8, ptr %12) #5
  %14 = load ptr, ptr %7, align 8, !tbaa !39
  %15 = icmp eq ptr %14, null
  br i1 %15, label %20, label %16

16:                                               ; preds = %5
  %17 = load ptr, ptr %7, align 8, !tbaa !39
  %18 = load ptr, ptr %17, align 8, !tbaa !29
  %19 = icmp eq ptr %18, null
  br i1 %19, label %20, label %25

20:                                               ; preds = %16, %5
  %21 = call ptr @X509_NAME_ENTRY_new()
  store ptr %21, ptr %12, align 8, !tbaa !29
  %22 = icmp eq ptr %21, null
  br i1 %22, label %23, label %24

23:                                               ; preds = %20
  store ptr null, ptr %6, align 8
  store i32 1, ptr %13, align 4
  br label %65

24:                                               ; preds = %20
  br label %28

25:                                               ; preds = %16
  %26 = load ptr, ptr %7, align 8, !tbaa !39
  %27 = load ptr, ptr %26, align 8, !tbaa !29
  store ptr %27, ptr %12, align 8, !tbaa !29
  br label %28

28:                                               ; preds = %25, %24
  %29 = load ptr, ptr %12, align 8, !tbaa !29
  %30 = load ptr, ptr %8, align 8, !tbaa !15
  %31 = call i32 @X509_NAME_ENTRY_set_object(ptr noundef %29, ptr noundef %30)
  %32 = icmp ne i32 %31, 0
  br i1 %32, label %34, label %33

33:                                               ; preds = %28
  br label %54

34:                                               ; preds = %28
  %35 = load ptr, ptr %12, align 8, !tbaa !29
  %36 = load i32, ptr %9, align 4, !tbaa !11
  %37 = load ptr, ptr %10, align 8, !tbaa !13
  %38 = load i32, ptr %11, align 4, !tbaa !11
  %39 = call i32 @X509_NAME_ENTRY_set_data(ptr noundef %35, i32 noundef %36, ptr noundef %37, i32 noundef %38)
  %40 = icmp ne i32 %39, 0
  br i1 %40, label %42, label %41

41:                                               ; preds = %34
  br label %54

42:                                               ; preds = %34
  %43 = load ptr, ptr %7, align 8, !tbaa !39
  %44 = icmp ne ptr %43, null
  br i1 %44, label %45, label %52

45:                                               ; preds = %42
  %46 = load ptr, ptr %7, align 8, !tbaa !39
  %47 = load ptr, ptr %46, align 8, !tbaa !29
  %48 = icmp eq ptr %47, null
  br i1 %48, label %49, label %52

49:                                               ; preds = %45
  %50 = load ptr, ptr %12, align 8, !tbaa !29
  %51 = load ptr, ptr %7, align 8, !tbaa !39
  store ptr %50, ptr %51, align 8, !tbaa !29
  br label %52

52:                                               ; preds = %49, %45, %42
  %53 = load ptr, ptr %12, align 8, !tbaa !29
  store ptr %53, ptr %6, align 8
  store i32 1, ptr %13, align 4
  br label %65

54:                                               ; preds = %41, %33
  %55 = load ptr, ptr %7, align 8, !tbaa !39
  %56 = icmp eq ptr %55, null
  br i1 %56, label %62, label %57

57:                                               ; preds = %54
  %58 = load ptr, ptr %12, align 8, !tbaa !29
  %59 = load ptr, ptr %7, align 8, !tbaa !39
  %60 = load ptr, ptr %59, align 8, !tbaa !29
  %61 = icmp ne ptr %58, %60
  br i1 %61, label %62, label %64

62:                                               ; preds = %57, %54
  %63 = load ptr, ptr %12, align 8, !tbaa !29
  call void @X509_NAME_ENTRY_free(ptr noundef %63)
  br label %64

64:                                               ; preds = %62, %57
  store ptr null, ptr %6, align 8
  store i32 1, ptr %13, align 4
  br label %65

65:                                               ; preds = %64, %52, %23
  call void @llvm.lifetime.end.p0(i64 8, ptr %12) #5
  %66 = load ptr, ptr %6, align 8
  ret ptr %66
}

; Function Attrs: nounwind uwtable
define hidden i32 @X509_NAME_add_entry_by_OBJ(ptr noundef %0, ptr noundef %1, i32 noundef %2, ptr noundef %3, i32 noundef %4, i32 noundef %5, i32 noundef %6) #0 {
  %8 = alloca i32, align 4
  %9 = alloca ptr, align 8
  %10 = alloca ptr, align 8
  %11 = alloca i32, align 4
  %12 = alloca ptr, align 8
  %13 = alloca i32, align 4
  %14 = alloca i32, align 4
  %15 = alloca i32, align 4
  %16 = alloca ptr, align 8
  %17 = alloca i32, align 4
  %18 = alloca i32, align 4
  store ptr %0, ptr %9, align 8, !tbaa !6
  store ptr %1, ptr %10, align 8, !tbaa !15
  store i32 %2, ptr %11, align 4, !tbaa !11
  store ptr %3, ptr %12, align 8, !tbaa !13
  store i32 %4, ptr %13, align 4, !tbaa !11
  store i32 %5, ptr %14, align 4, !tbaa !11
  store i32 %6, ptr %15, align 4, !tbaa !11
  call void @llvm.lifetime.start.p0(i64 8, ptr %16) #5
  call void @llvm.lifetime.start.p0(i64 4, ptr %17) #5
  %19 = load ptr, ptr %10, align 8, !tbaa !15
  %20 = load i32, ptr %11, align 4, !tbaa !11
  %21 = load ptr, ptr %12, align 8, !tbaa !13
  %22 = load i32, ptr %13, align 4, !tbaa !11
  %23 = call ptr @X509_NAME_ENTRY_create_by_OBJ(ptr noundef null, ptr noundef %19, i32 noundef %20, ptr noundef %21, i32 noundef %22)
  store ptr %23, ptr %16, align 8, !tbaa !29
  %24 = load ptr, ptr %16, align 8, !tbaa !29
  %25 = icmp ne ptr %24, null
  br i1 %25, label %27, label %26

26:                                               ; preds = %7
  store i32 0, ptr %8, align 4
  store i32 1, ptr %18, align 4
  br label %35

27:                                               ; preds = %7
  %28 = load ptr, ptr %9, align 8, !tbaa !6
  %29 = load ptr, ptr %16, align 8, !tbaa !29
  %30 = load i32, ptr %14, align 4, !tbaa !11
  %31 = load i32, ptr %15, align 4, !tbaa !11
  %32 = call i32 @X509_NAME_add_entry(ptr noundef %28, ptr noundef %29, i32 noundef %30, i32 noundef %31)
  store i32 %32, ptr %17, align 4, !tbaa !11
  %33 = load ptr, ptr %16, align 8, !tbaa !29
  call void @X509_NAME_ENTRY_free(ptr noundef %33)
  %34 = load i32, ptr %17, align 4, !tbaa !11
  store i32 %34, ptr %8, align 4
  store i32 1, ptr %18, align 4
  br label %35

35:                                               ; preds = %27, %26
  call void @llvm.lifetime.end.p0(i64 4, ptr %17) #5
  call void @llvm.lifetime.end.p0(i64 8, ptr %16) #5
  %36 = load i32, ptr %8, align 4
  ret i32 %36
}