; Function Attrs: nounwind uwtable
define hidden range(i32 0, 2) i32 @X509_NAME_add_entry_by_OBJ(ptr noundef captures(address_is_null) %0, ptr noundef %1, i32 noundef %2, ptr noundef %3, i32 noundef %4, i32 noundef %5, i32 noundef %6) local_unnamed_addr #0 {
  %8 = tail call ptr @X509_NAME_ENTRY_new() #7
  %9 = icmp eq ptr %8, null
  br i1 %9, label %X509_NAME_ENTRY_create_by_OBJ.exit.thread, label %10

10:                                               ; preds = %7
  %11 = icmp eq ptr %1, null
  br i1 %11, label %X509_NAME_ENTRY_set_object.exit.thread.i, label %X509_NAME_ENTRY_set_object.exit.i

X509_NAME_ENTRY_set_object.exit.thread.i:         ; preds = %10
  tail call void @ERR_put_error(i32 noundef 11, i32 noundef 0, i32 noundef 67, ptr noundef nonnull @.str, i32 noundef 341) #7
  br label %X509_NAME_ENTRY_create_by_OBJ.exit.thread.sink.split

X509_NAME_ENTRY_set_object.exit.i:                ; preds = %10
  %12 = load ptr, ptr %8, align 8, !tbaa !15
  tail call void @ASN1_OBJECT_free(ptr noundef %12) #7
  %13 = tail call ptr @OBJ_dup(ptr noundef nonnull %1) #7
  store ptr %13, ptr %8, align 8, !tbaa !15
  %.not27.i = icmp eq ptr %13, null
  br i1 %.not27.i, label %X509_NAME_ENTRY_create_by_OBJ.exit.thread.sink.split, label %14

14:                                               ; preds = %X509_NAME_ENTRY_set_object.exit.i
  %15 = tail call i32 @X509_NAME_ENTRY_set_data(ptr noundef nonnull %8, i32 noundef %2, ptr noundef %3, i32 noundef %4)
  %.not22.i = icmp eq i32 %15, 0
  br i1 %.not22.i, label %X509_NAME_ENTRY_create_by_OBJ.exit.thread.sink.split, label %X509_NAME_ENTRY_create_by_OBJ.exit

X509_NAME_ENTRY_create_by_OBJ.exit:               ; preds = %14
  %16 = tail call i32 @X509_NAME_add_entry(ptr noundef %0, ptr noundef nonnull %8, i32 noundef %5, i32 noundef %6)
  br label %X509_NAME_ENTRY_create_by_OBJ.exit.thread.sink.split

X509_NAME_ENTRY_create_by_OBJ.exit.thread.sink.split: ; preds = %X509_NAME_ENTRY_set_object.exit.thread.i, %X509_NAME_ENTRY_set_object.exit.i, %14, %X509_NAME_ENTRY_create_by_OBJ.exit
  %.0.ph = phi i32 [ %16, %X509_NAME_ENTRY_create_by_OBJ.exit ], [ 0, %14 ], [ 0, %X509_NAME_ENTRY_set_object.exit.i ], [ 0, %X509_NAME_ENTRY_set_object.exit.thread.i ]
  tail call void @X509_NAME_ENTRY_free(ptr noundef nonnull %8) #7
  br label %X509_NAME_ENTRY_create_by_OBJ.exit.thread

X509_NAME_ENTRY_create_by_OBJ.exit.thread:        ; preds = %X509_NAME_ENTRY_create_by_OBJ.exit.thread.sink.split, %7
  %.0 = phi i32 [ 0, %7 ], [ %.0.ph, %X509_NAME_ENTRY_create_by_OBJ.exit.thread.sink.split ]
  ret i32 %.0
}